; Function Attrs: nounwind uwtable
define internal noundef i32 @img_read_close(ptr noundef readonly captures(none) %0) #0 {
  %2 = getelementptr inbounds nuw i8, ptr %0, i64 24
  %3 = load ptr, ptr %2, align 8, !tbaa !4
  %4 = getelementptr inbounds nuw i8, ptr %3, i64 1104
  %5 = load i32, ptr %4, align 8, !tbaa !71
  %.not = icmp eq i32 %5, 0
  br i1 %.not, label %8, label %6

6:                                                ; preds = %1
  %7 = getelementptr inbounds nuw i8, ptr %3, i64 1112
  tail call void @globfree64(ptr noundef nonnull %7) #14
  br label %8

8:                                                ; preds = %6, %1
  ret i32 0
}